target datalayout = "e-m:e-p270:32:32-p271:32:32-p272:64:64-i64:64-i128:128-f80:128-n8:16:32:64-S128"
target triple = "x86_64-pc-linux-gnu"

; Function Attrs: mustprogress nounwind uwtable
define internal noundef double @_ZL8safe_expd(double noundef %0) #0 {
  %2 = alloca double, align 8
  %3 = alloca double, align 8
  %4 = alloca double, align 8
  %5 = alloca double, align 8
  %6 = alloca i32, align 4
  store double %0, ptr %3, align 8, !tbaa !16
  call void @llvm.lifetime.start.p0(i64 8, ptr %4) #14
  store double 2.000000e+02, ptr %4, align 8, !tbaa !16
  call void @llvm.lifetime.start.p0(i64 8, ptr %5) #14
  %7 = load double, ptr %4, align 8, !tbaa !16
  %8 = fneg double %7
  store double %8, ptr %5, align 8, !tbaa !16
  %9 = load double, ptr %3, align 8, !tbaa !16
  %10 = load double, ptr %5, align 8, !tbaa !16
  %11 = fcmp ole double %9, %10
  br i1 %11, label %12, label %15

12:                                               ; preds = %1
  %13 = load double, ptr %5, align 8, !tbaa !16
  %14 = call double @exp(double noundef %13) #14, !tbaa !4
  store double %14, ptr %2, align 8
  store i32 1, ptr %6, align 4
  br label %25

15:                                               ; preds = %1
  %16 = load double, ptr %3, align 8, !tbaa !16
  %17 = load double, ptr %4, align 8, !tbaa !16
  %18 = fcmp oge double %16, %17
  br i1 %18, label %19, label %22

19:                                               ; preds = %15
  %20 = load double, ptr %4, align 8, !tbaa !16
  %21 = call double @exp(double noundef %20) #14, !tbaa !4
  store double %21, ptr %2, align 8
  store i32 1, ptr %6, align 4
  br label %25

22:                                               ; preds = %15
  %23 = load double, ptr %3, align 8, !tbaa !16
  %24 = call double @exp(double noundef %23) #14, !tbaa !4
  store double %24, ptr %2, align 8
  store i32 1, ptr %6, align 4
  br label %25

25:                                               ; preds = %22, %19, %12
  call void @llvm.lifetime.end.p0(i64 8, ptr %5) #14
  call void @llvm.lifetime.end.p0(i64 8, ptr %4) #14
  %26 = load double, ptr %2, align 8
  ret double %26
}

; Function Attrs: mustprogress nounwind uwtable
define internal noundef double @_ZL16lmc_exp_two_parmdPKd(double noundef %0, ptr noundef %1) #0 {
  %3 = alloca double, align 8
  %4 = alloca ptr, align 8
  store double %0, ptr %3, align 8, !tbaa !16
  store ptr %1, ptr %4, align 8, !tbaa !18
  %5 = load ptr, ptr %4, align 8, !tbaa !18
  %6 = getelementptr inbounds double, ptr %5, i64 1
  %7 = load double, ptr %6, align 8, !tbaa !16
  %8 = load double, ptr %3, align 8, !tbaa !16
  %9 = fneg double %8
  %10 = load ptr, ptr %4, align 8, !tbaa !18
  %11 = getelementptr inbounds double, ptr %10, i64 0
  %12 = load double, ptr %11, align 8, !tbaa !16
  %13 = call double @llvm.fabs.f64(double %12)
  %14 = fdiv double %9, %13
  %15 = call noundef double @_ZL8safe_expd(double noundef %14)
  %16 = fmul double %7, %15
  ret double %16
}