; Function Attrs: mustprogress nofree nounwind willreturn memory(write, argmem: readwrite) uwtable
define internal noundef double @_ZL16lmc_exp_two_parmdPKd(double noundef %0, ptr noundef readonly captures(none) %1) #4 {
  %3 = getelementptr inbounds nuw i8, ptr %1, i64 8
  %4 = load double, ptr %3, align 8, !tbaa !13
  %5 = fneg double %0
  %6 = load double, ptr %1, align 8, !tbaa !13
  %7 = tail call double @llvm.fabs.f64(double %6)
  %8 = fdiv double %5, %7
  %9 = fcmp ugt double %8, -2.000000e+02
  br i1 %9, label %10, label %_ZL8safe_expd.exit

10:                                               ; preds = %2
  %11 = fcmp ult double %8, 2.000000e+02
  br i1 %11, label %12, label %_ZL8safe_expd.exit

12:                                               ; preds = %10
  %13 = tail call double @exp(double noundef %8) #18, !tbaa !4
  br label %_ZL8safe_expd.exit

_ZL8safe_expd.exit:                               ; preds = %2, %10, %12
  %.0.i = phi double [ %13, %12 ], [ 0x2DE6061812054CFA, %2 ], [ 0x51F73F60EA79F5B9, %10 ]
  %14 = fmul double %4, %.0.i
  ret double %14
}